target datalayout = "e-m:e-p270:32:32-p271:32:32-p272:64:64-i64:64-i128:128-f80:128-n8:16:32:64-S128"
target triple = "x86_64-pc-linux-gnu"

%struct.OSQPVectorf_ = type { ptr, i64 }

; Function Attrs: nounwind uwtable
define void @OSQPVectorf_view_update(ptr noundef %0, ptr noundef %1, i64 noundef %2, i64 noundef %3) #0 {
  %5 = alloca ptr, align 8
  %6 = alloca ptr, align 8
  %7 = alloca i64, align 8
  %8 = alloca i64, align 8
  store ptr %0, ptr %5, align 8
  store ptr %1, ptr %6, align 8
  store i64 %2, ptr %7, align 8
  store i64 %3, ptr %8, align 8
  %9 = load i64, ptr %8, align 8
  %10 = load ptr, ptr %5, align 8
  %11 = getelementptr inbounds %struct.OSQPVectorf_, ptr %10, i32 0, i32 1
  store i64 %9, ptr %11, align 8
  %12 = load ptr, ptr %6, align 8
  %13 = getelementptr inbounds %struct.OSQPVectorf_, ptr %12, i32 0, i32 0
  %14 = load ptr, ptr %13, align 8
  %15 = load i64, ptr %7, align 8
  %16 = getelementptr inbounds double, ptr %14, i64 %15
  %17 = load ptr, ptr %5, align 8
  %18 = getelementptr inbounds %struct.OSQPVectorf_, ptr %17, i32 0, i32 0
  store ptr %16, ptr %18, align 8
  ret void
}

; Function Attrs: nounwind uwtable
define ptr @OSQPVectorf_view(ptr noundef %0, i64 noundef %1, i64 noundef %2) #0 {
  %4 = alloca ptr, align 8
  %5 = alloca i64, align 8
  %6 = alloca i64, align 8
  %7 = alloca ptr, align 8
  store ptr %0, ptr %4, align 8
  store i64 %1, ptr %5, align 8
  store i64 %2, ptr %6, align 8
  %8 = call noalias ptr @malloc(i64 noundef 16) #5
  store ptr %8, ptr %7, align 8
  %9 = load ptr, ptr %7, align 8
  %10 = icmp ne ptr %9, null
  br i1 %10, label %11, label %16

11:                                               ; preds = %3
  %12 = load ptr, ptr %7, align 8
  %13 = load ptr, ptr %4, align 8
  %14 = load i64, ptr %5, align 8
  %15 = load i64, ptr %6, align 8
  call void @OSQPVectorf_view_update(ptr noundef %12, ptr noundef %13, i64 noundef %14, i64 noundef %15)
  br label %16

16:                                               ; preds = %11, %3
  %17 = load ptr, ptr %7, align 8
  ret ptr %17
}