; Function Attrs: mustprogress nofree nounwind willreturn memory(write, argmem: read, inaccessiblemem: readwrite) uwtable
define noalias noundef ptr @OSQPVectorf_view(ptr nocapture noundef readonly %0, i64 noundef %1, i64 noundef %2) local_unnamed_addr #10 {
  %4 = tail call noalias dereferenceable_or_null(16) ptr @malloc(i64 noundef 16) #18
  %.not = icmp eq ptr %4, null
  br i1 %.not, label %9, label %5

5:                                                ; preds = %3
  %6 = getelementptr inbounds i8, ptr %4, i64 8
  store i64 %2, ptr %6, align 8
  %7 = load ptr, ptr %0, align 8
  %8 = getelementptr inbounds double, ptr %7, i64 %1
  store ptr %8, ptr %4, align 8
  br label %9

9:                                                ; preds = %5, %3
  ret ptr %4
}